target datalayout = "e-m:e-p270:32:32-p271:32:32-p272:64:64-i64:64-i128:128-f80:128-n8:16:32:64-S128"
target triple = "x86_64-pc-linux-gnu"

%struct.Vec_Int_t_ = type { i32, i32, ptr }

; Function Attrs: inlinehint nounwind uwtable
define internal i32 @Vec_IntEntry(ptr noundef %0, i32 noundef %1) #2 {
  %3 = alloca ptr, align 8
  %4 = alloca i32, align 4
  store ptr %0, ptr %3, align 8, !tbaa !8
  store i32 %1, ptr %4, align 4, !tbaa !10
  %5 = load ptr, ptr %3, align 8, !tbaa !8
  %6 = getelementptr inbounds nuw %struct.Vec_Int_t_, ptr %5, i32 0, i32 2
  %7 = load ptr, ptr %6, align 8, !tbaa !17
  %8 = load i32, ptr %4, align 4, !tbaa !10
  %9 = sext i32 %8 to i64
  %10 = getelementptr inbounds i32, ptr %7, i64 %9
  %11 = load i32, ptr %10, align 4, !tbaa !10
  ret i32 %11
}

; Function Attrs: nounwind uwtable
define i32 @Acec_ManCheckCarryMap(ptr noundef %0, i32 noundef %1, ptr noundef %2, ptr noundef %3) #0 {
  %5 = alloca ptr, align 8
  %6 = alloca i32, align 4
  %7 = alloca ptr, align 8
  %8 = alloca ptr, align 8
  %9 = alloca i32, align 4
  store ptr %0, ptr %5, align 8, !tbaa !3
  store i32 %1, ptr %6, align 4, !tbaa !10
  store ptr %2, ptr %7, align 8, !tbaa !8
  store ptr %3, ptr %8, align 8, !tbaa !8
  call void @llvm.lifetime.start.p0(i64 4, ptr %9) #11
  %10 = load ptr, ptr %8, align 8, !tbaa !8
  %11 = load i32, ptr %6, align 4, !tbaa !10
  %12 = call i32 @Vec_IntEntry(ptr noundef %10, i32 noundef %11)
  store i32 %12, ptr %9, align 4, !tbaa !10
  %13 = load ptr, ptr %8, align 8, !tbaa !8
  %14 = load ptr, ptr %7, align 8, !tbaa !8
  %15 = load i32, ptr %9, align 4, !tbaa !10
  %16 = mul nsw i32 6, %15
  %17 = add nsw i32 %16, 0
  %18 = call i32 @Vec_IntEntry(ptr noundef %14, i32 noundef %17)
  %19 = call i32 @Vec_IntEntry(ptr noundef %13, i32 noundef %18)
  %20 = icmp sge i32 %19, 0
  br i1 %20, label %39, label %21

21:                                               ; preds = %4
  %22 = load ptr, ptr %8, align 8, !tbaa !8
  %23 = load ptr, ptr %7, align 8, !tbaa !8
  %24 = load i32, ptr %9, align 4, !tbaa !10
  %25 = mul nsw i32 6, %24
  %26 = add nsw i32 %25, 1
  %27 = call i32 @Vec_IntEntry(ptr noundef %23, i32 noundef %26)
  %28 = call i32 @Vec_IntEntry(ptr noundef %22, i32 noundef %27)
  %29 = icmp sge i32 %28, 0
  br i1 %29, label %39, label %30

30:                                               ; preds = %21
  %31 = load ptr, ptr %8, align 8, !tbaa !8
  %32 = load ptr, ptr %7, align 8, !tbaa !8
  %33 = load i32, ptr %9, align 4, !tbaa !10
  %34 = mul nsw i32 6, %33
  %35 = add nsw i32 %34, 2
  %36 = call i32 @Vec_IntEntry(ptr noundef %32, i32 noundef %35)
  %37 = call i32 @Vec_IntEntry(ptr noundef %31, i32 noundef %36)
  %38 = icmp sge i32 %37, 0
  br label %39

39:                                               ; preds = %30, %21, %4
  %40 = phi i1 [ true, %21 ], [ true, %4 ], [ %38, %30 ]
  %41 = zext i1 %40 to i32
  call void @llvm.lifetime.end.p0(i64 4, ptr %9) #11
  ret i32 %41
}