; Function Attrs: mustprogress nofree norecurse nosync nounwind willreturn memory(read, inaccessiblemem: none) uwtable
define range(i32 0, 2) i32 @Acec_ManCheckCarryMap(ptr noundef readnone captures(none) %0, i32 noundef %1, ptr noundef readonly captures(none) %2, ptr noundef readonly captures(none) %3) local_unnamed_addr #2 {
  %5 = getelementptr i8, ptr %3, i64 8
  %.val15 = load ptr, ptr %5, align 8, !tbaa !29
  %6 = sext i32 %1 to i64
  %7 = getelementptr inbounds i32, ptr %.val15, i64 %6
  %8 = load i32, ptr %7, align 4, !tbaa !31
  %9 = mul nsw i32 %8, 6
  %10 = getelementptr i8, ptr %2, i64 8
  %.val14 = load ptr, ptr %10, align 8, !tbaa !29
  %11 = sext i32 %9 to i64
  %12 = getelementptr i32, ptr %.val14, i64 %11
  %13 = load i32, ptr %12, align 4, !tbaa !31
  %14 = sext i32 %13 to i64
  %15 = getelementptr inbounds i32, ptr %.val15, i64 %14
  %16 = load i32, ptr %15, align 4, !tbaa !31
  %17 = icmp sgt i32 %16, -1
  br i1 %17, label %35, label %18

18:                                               ; preds = %4
  %19 = or disjoint i32 %9, 1
  %20 = sext i32 %19 to i64
  %21 = getelementptr inbounds i32, ptr %.val14, i64 %20
  %22 = load i32, ptr %21, align 4, !tbaa !31
  %23 = sext i32 %22 to i64
  %24 = getelementptr inbounds i32, ptr %.val15, i64 %23
  %25 = load i32, ptr %24, align 4, !tbaa !31
  %26 = icmp sgt i32 %25, -1
  br i1 %26, label %35, label %27

27:                                               ; preds = %18
  %28 = getelementptr i8, ptr %12, i64 8
  %29 = load i32, ptr %28, align 4, !tbaa !31
  %30 = sext i32 %29 to i64
  %31 = getelementptr inbounds i32, ptr %.val15, i64 %30
  %32 = load i32, ptr %31, align 4, !tbaa !31
  %33 = icmp sgt i32 %32, -1
  %34 = zext i1 %33 to i32
  br label %35

35:                                               ; preds = %27, %18, %4
  %36 = phi i32 [ 1, %18 ], [ 1, %4 ], [ %34, %27 ]
  ret i32 %36
}